; Function Attrs: nounwind uwtable
define void @Lms_ManPrepare(ptr noundef captures(none) initializes((48, 56)) %0) local_unnamed_addr #0 {
  %2 = getelementptr inbounds nuw i8, ptr %0, i64 32
  %3 = load ptr, ptr %2, align 8
  %4 = getelementptr i8, ptr %3, i64 4
  %.val24 = load i32, ptr %4, align 4
  %5 = add nsw i32 %.val24, 1
  %6 = tail call noalias dereferenceable_or_null(16) ptr @malloc(i64 noundef 16) #23
  %or.cond.i.i = icmp ult i32 %.val24, 15
  %spec.store.select.i.i = select i1 %or.cond.i.i, i32 16, i32 %5
  %7 = getelementptr inbounds nuw i8, ptr %6, i64 4
  store i32 %spec.store.select.i.i, ptr %6, align 8
  %.not.i.i = icmp eq i32 %spec.store.select.i.i, 0
  br i1 %.not.i.i, label %Vec_IntAlloc.exit.thread.i, label %Vec_IntAlloc.exit.i

Vec_IntAlloc.exit.thread.i:                       ; preds = %1
  %8 = getelementptr inbounds nuw i8, ptr %6, i64 8
  store ptr null, ptr %8, align 8
  store i32 %5, ptr %7, align 4
  br label %Vec_IntStartFull.exit

Vec_IntAlloc.exit.i:                              ; preds = %1
  %9 = sext i32 %spec.store.select.i.i to i64
  %10 = shl nsw i64 %9, 2
  %11 = tail call noalias ptr @malloc(i64 noundef %10) #23
  %12 = getelementptr inbounds nuw i8, ptr %6, i64 8
  store ptr %11, ptr %12, align 8
  store i32 %5, ptr %7, align 4
  %.not.i = icmp eq ptr %11, null
  br i1 %.not.i, label %Vec_IntStartFull.exit, label %13

13:                                               ; preds = %Vec_IntAlloc.exit.i
  %14 = sext i32 %5 to i64
  %15 = shl nsw i64 %14, 2
  tail call void @llvm.memset.p0.i64(ptr nonnull align 4 %11, i8 -1, i64 %15, i1 false)
  br label %Vec_IntStartFull.exit

Vec_IntStartFull.exit:                            ; preds = %Vec_IntAlloc.exit.thread.i, %Vec_IntAlloc.exit.i, %13
  %16 = getelementptr inbounds nuw i8, ptr %0, i64 48
  store ptr %6, ptr %16, align 8
  %17 = getelementptr inbounds nuw i8, ptr %0, i64 40
  %18 = load ptr, ptr %17, align 8
  %19 = getelementptr i8, ptr %18, i64 4
  %.val34 = load i32, ptr %19, align 4
  %20 = icmp sgt i32 %.val34, 0
  br i1 %20, label %.lr.ph, label %.critedge

.lr.ph:                                           ; preds = %Vec_IntStartFull.exit, %33
  %21 = phi ptr [ %34, %33 ], [ %18, %Vec_IntStartFull.exit ]
  %indvars.iv = phi i64 [ %indvars.iv.next, %33 ], [ 0, %Vec_IntStartFull.exit ]
  %22 = getelementptr i8, ptr %21, i64 8
  %.val22 = load ptr, ptr %22, align 8
  %23 = getelementptr inbounds nuw i32, ptr %.val22, i64 %indvars.iv
  %24 = load i32, ptr %23, align 4
  %25 = load ptr, ptr %16, align 8
  %26 = getelementptr i8, ptr %25, i64 8
  %.val23 = load ptr, ptr %26, align 8
  %27 = sext i32 %24 to i64
  %28 = getelementptr inbounds i32, ptr %.val23, i64 %27
  %29 = load i32, ptr %28, align 4
  %30 = icmp eq i32 %29, -1
  br i1 %30, label %31, label %33

31:                                               ; preds = %.lr.ph
  %32 = trunc nuw nsw i64 %indvars.iv to i32
  store i32 %32, ptr %28, align 4
  %.pre = load ptr, ptr %17, align 8
  br label %33

33:                                               ; preds = %.lr.ph, %31
  %34 = phi ptr [ %21, %.lr.ph ], [ %.pre, %31 ]
  %indvars.iv.next = add nuw nsw i64 %indvars.iv, 1
  %35 = getelementptr i8, ptr %34, i64 4
  %.val = load i32, ptr %35, align 4
  %36 = sext i32 %.val to i64
  %37 = icmp slt i64 %indvars.iv.next, %36
  br i1 %37, label %.lr.ph, label %.critedge.loopexit, !llvm.loop !24

.critedge.loopexit:                               ; preds = %33
  %.pre37 = load ptr, ptr %16, align 8
  %.pre38 = load ptr, ptr %2, align 8
  br label %.critedge

.critedge:                                        ; preds = %.critedge.loopexit, %Vec_IntStartFull.exit
  %38 = phi ptr [ %.pre38, %.critedge.loopexit ], [ %3, %Vec_IntStartFull.exit ]
  %39 = phi ptr [ %.pre37, %.critedge.loopexit ], [ %6, %Vec_IntStartFull.exit ]
  %40 = getelementptr i8, ptr %38, i64 4
  %.val25 = load i32, ptr %40, align 4
  %41 = getelementptr inbounds nuw i8, ptr %0, i64 24
  %42 = load ptr, ptr %41, align 8
  %43 = getelementptr i8, ptr %42, i64 72
  %.val21 = load ptr, ptr %43, align 8
  %44 = getelementptr i8, ptr %.val21, i64 4
  %.val21.val = load i32, ptr %44, align 4
  %45 = getelementptr i8, ptr %39, i64 8
  %.val27 = load ptr, ptr %45, align 8
  %46 = sext i32 %.val25 to i64
  %47 = getelementptr inbounds i32, ptr %.val27, i64 %46
  store i32 %.val21.val, ptr %47, align 4
  %48 = load ptr, ptr %41, align 8
  %49 = tail call ptr @Lms_GiaDelays(ptr noundef %48)
  %50 = getelementptr inbounds nuw i8, ptr %0, i64 56
  store ptr %49, ptr %50, align 8
  %51 = load ptr, ptr %41, align 8
  %52 = tail call ptr @Lms_GiaAreas(ptr noundef %51)
  %53 = getelementptr inbounds nuw i8, ptr %0, i64 64
  store ptr %52, ptr %53, align 8
  %54 = load ptr, ptr %41, align 8
  %55 = getelementptr i8, ptr %54, i64 72
  %.val20 = load ptr, ptr %55, align 8
  %56 = getelementptr i8, ptr %.val20, i64 4
  %.val20.val = load i32, ptr %56, align 4
  %57 = tail call noalias dereferenceable_or_null(16) ptr @malloc(i64 noundef 16) #23
  %58 = add i32 %.val20.val, -1
  %or.cond.i.i28 = icmp ult i32 %58, 15
  %spec.store.select.i.i29 = select i1 %or.cond.i.i28, i32 16, i32 %.val20.val
  %59 = getelementptr inbounds nuw i8, ptr %57, i64 4
  store i32 %spec.store.select.i.i29, ptr %57, align 8
  %.not.i.i30 = icmp eq i32 %spec.store.select.i.i29, 0
  br i1 %.not.i.i30, label %Vec_IntAlloc.exit.thread.i33, label %Vec_IntAlloc.exit.i31

Vec_IntAlloc.exit.thread.i33:                     ; preds = %.critedge
  %60 = getelementptr inbounds nuw i8, ptr %57, i64 8
  store ptr null, ptr %60, align 8
  store i32 %.val20.val, ptr %59, align 4
  br label %Vec_IntStart.exit

Vec_IntAlloc.exit.i31:                            ; preds = %.critedge
  %61 = sext i32 %spec.store.select.i.i29 to i64
  %62 = shl nsw i64 %61, 2
  %63 = tail call noalias ptr @malloc(i64 noundef %62) #23
  %64 = getelementptr inbounds nuw i8, ptr %57, i64 8
  store ptr %63, ptr %64, align 8
  store i32 %.val20.val, ptr %59, align 4
  %.not.i32 = icmp eq ptr %63, null
  br i1 %.not.i32, label %Vec_IntStart.exit, label %65

65:                                               ; preds = %Vec_IntAlloc.exit.i31
  %66 = sext i32 %.val20.val to i64
  %67 = shl nsw i64 %66, 2
  tail call void @llvm.memset.p0.i64(ptr nonnull align 4 %63, i8 0, i64 %67, i1 false)
  br label %Vec_IntStart.exit

Vec_IntStart.exit:                                ; preds = %Vec_IntAlloc.exit.thread.i33, %Vec_IntAlloc.exit.i31, %65
  %68 = getelementptr inbounds nuw i8, ptr %0, i64 72
  store ptr %57, ptr %68, align 8
  ret void
}